; Function Attrs: mustprogress nounwind uwtable
define hidden noundef i64 @_ZNK16MutableNUMASpace13used_in_wordsEv(ptr nocapture noundef nonnull readonly align 8 dereferenceable(96) %0) unnamed_addr #0 align 2 {
  %2 = getelementptr inbounds i8, ptr %0, i64 56
  %3 = load ptr, ptr %2, align 8
  %4 = load i32, ptr %3, align 4
  %5 = icmp sgt i32 %4, 0
  br i1 %5, label %.lr.ph, label %._crit_edge

.lr.ph:                                           ; preds = %1, %.lr.ph
  %indvars.iv = phi i64 [ %indvars.iv.next, %.lr.ph ], [ 0, %1 ]
  %6 = phi ptr [ %18, %.lr.ph ], [ %3, %1 ]
  %.056 = phi i64 [ %17, %.lr.ph ], [ 0, %1 ]
  %7 = getelementptr inbounds i8, ptr %6, i64 8
  %8 = load ptr, ptr %7, align 8
  %9 = getelementptr inbounds ptr, ptr %8, i64 %indvars.iv
  %10 = load ptr, ptr %9, align 8
  %11 = getelementptr inbounds i8, ptr %10, i64 8
  %12 = load ptr, ptr %11, align 8
  %13 = load ptr, ptr %12, align 8
  %14 = getelementptr inbounds i8, ptr %13, i64 80
  %15 = load ptr, ptr %14, align 8
  %16 = tail call noundef i64 %15(ptr noundef nonnull align 8 dereferenceable(56) %12) #11
  %17 = add i64 %16, %.056
  %indvars.iv.next = add nuw nsw i64 %indvars.iv, 1
  %18 = load ptr, ptr %2, align 8
  %19 = load i32, ptr %18, align 4
  %20 = sext i32 %19 to i64
  %21 = icmp slt i64 %indvars.iv.next, %20
  br i1 %21, label %.lr.ph, label %._crit_edge, !llvm.loop !11

._crit_edge:                                      ; preds = %.lr.ph, %1
  %.05.lcssa = phi i64 [ 0, %1 ], [ %17, %.lr.ph ]
  ret i64 %.05.lcssa
}